******************************************************************************
               TMS320C6x Linker PC v7.4.4                      
******************************************************************************
>> Linked Tue Mar 03 12:42:47 2020

OUTPUT FILE NAME:   <usb_host_msc.out>
ENTRY POINT SYMBOL: "_c_int00"  address: c0087000


MEMORY CONFIGURATION

         name            origin    length      used     unused   attr    fill
----------------------  --------  ---------  --------  --------  ----  --------
  L2                    11800000   00040000  00000000  00040000  RWIX
  L1P                   11e00000   00008000  00000000  00008000  RWIX
  L1D                   11f00000   00008000  00000000  00008000  RWIX
  DDR2                  c0000000   08000000  00e8d2b4  07172d4c  RWIX


SEGMENT ALLOCATION MAP

run origin  load origin   length   init length attrs members
----------  ----------- ---------- ----------- ----- -------
c0000000    c0000000    00061338   00061338    rw-
  c0000000    c0000000    00061338   00061338    rw- .far
c0061338    c0061338    00000070   00000070    r--
  c0061338    c0061338    00000070   00000070    r-- .switch
c0061400    c0061400    0001c960   0001c960    r-x
  c0061400    c0061400    0001c960   0001c960    r-x .text
c007dd60    c007dd60    00008670   00006670    rw-
  c007dd60    c007dd60    00006670   00006670    rw- .fardata
  c00843d0    c00843d0    00001000   00000000    rw- .stack
  c00853d0    c00853d0    00001000   00000000    rw- .sysmem
c00863d0    c00863d0    00000938   00000938    r--
  c00863d0    c00863d0    00000938   00000938    r-- .const
c0086d08    c0086d08    00000120   00000000    rw-
  c0086d08    c0086d08    00000120   00000000    rw- .cio
c0086e28    c0086e28    00000031   00000031    rw-
  c0086e28    c0086e28    00000031   00000031    rw- .neardata
c0086e5c    c0086e5c    00000004   00000004    r--
  c0086e5c    c0086e5c    00000004   00000004    r-- .rodata
c0086e60    c0086e60    00000038   00000000    rw-
  c0086e60    c0086e60    00000038   00000000    rw- .bss
c0087000    c0087000    00000080   00000080    r-x
  c0087000    c0087000    00000080   00000080    r-x .text:_c_int00
c0087080    c0087080    00e00000   00000000    rw-
  c0087080    c0087080    00e00000   00000000    rw- .EXT_RAM
c0e87080    c0e87080    000063f4   000063f4    r--
  c0e87080    c0e87080    000063f4   000063f4    r-- .cinit


SECTION ALLOCATION MAP

 output                                  attributes/
section   page    origin      length       input sections
--------  ----  ----------  ----------   ----------------
.init_array 
*          0    c0000000    00000000     UNINITIALIZED

.far       0    c0000000    00061338     
                  c0000000    00056380     drivers.lib : cppi41dma.obj (.far) [fill = 0]
                  c0056380    00009c58     usblib.lib : usbdata.obj (.far) [fill = 0]
                  c005ffd8    00000a18     usb.obj (.far) [fill = 0]
                  c00609f0    00000578     usblib.lib : usbhostenum.obj (.far) [fill = 0]
                  c0060f68    00000240     system_config.lib : interrupt.obj (.far) [fill = 0]
                  c00611a8    00000140     rts6740_elf.lib : defs.obj (.far) [fill = 0]
                  c00612e8    00000020     usblib.lib : usbhmsc.obj (.far) [fill = 0]
                  c0061308    0000001c                : usbtick.obj (.far) [fill = 0]
                  c0061324    00000004     --HOLE--
                  c0061328    00000008     ff.obj (.far) [fill = 0]
                  c0061330    00000008     rts6740_elf.lib : trgdrv.obj (.far) [fill = 0]

.switch    0    c0061338    00000070     
                  c0061338    00000030     usblib.lib : usbhostenum.obj (.switch:USBHCDMain)
                  c0061368    00000024     utils.lib : uartStdio.obj (.switch:UARTprintf)
                  c006138c    0000001c     usblib.lib : usbhostenum.obj (.switch:USBHCDEnumHandler)

.text      0    c0061400    0001c960     
                  c0061400    00005940     usblib.lib : usbhostenum.obj (.text)
                  c0066d40    00003440     ff.obj (.text)
                  c006a180    00002920     usb.obj (.text)
                  c006caa0    00001ac0     drivers.lib : cppi41dma.obj (.text)
                  c006e560    00001aa0     system_config.lib : interrupt.obj (.text:retain)
                  c0070000    00001980     drivers.lib : usb.obj (.text)
                  c0071980    00000b60     utils.lib : uartStdio.obj (.text)
                  c00724e0    00000840     cnn.obj (.text)
                  c0072d20    00000820     drivers.lib : timer.obj (.text)
                  c0073540    00000620     usblib.lib : usbhmsc.obj (.text)
                  c0073b60    000005e0     system_config.lib : interrupt.obj (.text)
                  c0074140    000005c0     rts6740_elf.lib : _printfi.obj (.text:_getarg_diouxp)
                  c0074700    000005a0                     : divd.obj (.text:__c6xabi_divd)
                  c0074ca0    00000580     drivers.lib : uart.obj (.text)
                  c0075220    00000580     usblib.lib : usbhscsi.obj (.text)
                  c00757a0    000004c0     rts6740_elf.lib : fwrite.obj (.text:fwrite)
                  c0075c60    00000480                     : strtod.obj (.text:strtod)
                  c00760e0    00000460                     : _printfi.obj (.text:_printfi)
                  c0076540    00000460                     : _printfi.obj (.text:_setfield)
                  c00769a0    00000420     system_config.lib : cache.obj (.text)
                  c0076dc0    000003a0     rts6740_elf.lib : fputs.obj (.text:fputs)
                  c0077160    00000320                     : _printfi.obj (.text:_pproc_fge)
                  c0077480    00000320     usblib.lib : usbdesc.obj (.text)
                  c00777a0    000002e0     rts6740_elf.lib : _printfi.obj (.text:_pproc_fwp)
                  c0077a80    000002c0                     : fread.obj (.text:fread)
                  c0077d40    000002a0                     : _printfi.obj (.text:ecvt)
                  c0077fe0    000002a0                     : _printfi.obj (.text:fcvt)
                  c0078280    00000280                     : memory.obj (.text:free)
                  c0078500    00000260                     : imath64.obj (.text:__c6xabi_divull)
                  c0078760    00000260                     : _printfi.obj (.text:_pconv_e)
                  c00789c0    00000240                     : _printfi.obj (.text:_pproc_diouxp)
                  c0078c00    00000240                     : exp.obj (.text:exp)
                  c0078e40    00000220                     : _printfi.obj (.text:_pproc_str)
                  c0079060    00000220                     : fputc.obj (.text:fputc)
                  c0079280    00000200                     : _printfi.obj (.text:_pconv_g)
                  c0079480    00000200                     : setvbuf.obj (.text:setvbuf)
                  c0079680    00000180                     : trgdrv.obj (.text:HOSTrename)
                  c0079800    00000200     system_config.lib : intvecs.obj (.text)
                  c0079a00    000001e0     fat_usbmsc.obj (.text)
                  c0079be0    000001c0     rts6740_elf.lib : _printfi.obj (.text:_mcpy)
                  c0079da0    000001c0                     : fopen.obj (.text:_openfile)
                  c0079f60    000001c0     platform.lib : sysdelay.obj (.text)
                  c007a120    000001a0     rts6740_elf.lib : imath40.obj (.text:__c6xabi_divul)
                  c007a2c0    00000180                     : copy_decompress_rle.obj (.text:__TI_decompress_rle_core)
                  c007a440    00000180                     : ldexp.obj (.text:ldexp)
                  c007a5c0    00000180                     : memory.obj (.text:malloc)
                  c007a740    00000180                     : lowlev.obj (.text:open)
                  c007a8c0    00000180     platform.lib : uart.obj (.text)
                  c007aa40    00000140     rts6740_elf.lib : _printfi.obj (.text:_pproc_fflags)
                  c007ab80    00000140     drivers.lib : psc.obj (.text)
                  c007acc0    00000140     rts6740_elf.lib : lowlev.obj (.text:getdevice)
                  c007ae00    00000140                     : perror.obj (.text:perror)
                  c007af40    00000120                     : _bufread.obj (.text:_buff_read)
                  c007b060    00000120                     : fclose.obj (.text:_closefile)
                  c007b180    00000120                     : _printfi.obj (.text:_ltostr)
                  c007b2a0    00000120                     : fopen.obj (.text:_search_fp)
                  c007b3c0    00000120                     : fseek.obj (.text:fseek)
                  c007b4e0    00000120     usblib.lib : usbtick.obj (.text)
                  c007b600    00000100     rts6740_elf.lib : trgdrv.obj (.text:HOSTlseek)
                  c007b700    00000100                     : autoinit.obj (.text:_auto_init_elf)
                  c007b800    00000100                     : _io_perm.obj (.text:_wrt_ok)
                  c007b900    00000100                     : cpy_tbl.obj (.text:copy_in)
                  c007ba00    00000100     drivers.lib : usbphyGS60.obj (.text)
                  c007bb00    000000e0     rts6740_elf.lib : trgdrv.obj (.text:HOSTopen)
                  c007bbe0    000000e0                     : divi.obj (.text:__divi)
                  c007bcc0    000000e0                     : atoi.obj (.text:atoi)
                  c007bda0    000000e0                     : lowlev.obj (.text:close)
                  c007be80    000000e0                     : copy_zero_init.obj (.text:decompress:ZI:__TI_zero_init)
                  c007bf60    000000e0                     : ltoa.obj (.text:ltoa)
                  c007c040    000000e0                     : memset.obj (.text:memset)
                  c007c120    000000e0     platform.lib : uartConsole.obj (.text)
                  c007c200    000000e0     rts6740_elf.lib : printf.obj (.text:printf)
                  c007c2e0    000000c0                     : trgdrv.obj (.text:HOSTread)
                  c007c3a0    000000c0                     : trgdrv.obj (.text:HOSTunlink)
                  c007c460    000000c0                     : trgdrv.obj (.text:HOSTwrite)
                  c007c520    000000c0                     : divu.obj (.text:__divu)
                  c007c5e0    000000c0                     : remi.obj (.text:__remi)
                  c007c6a0    000000c0                     : _printfi.obj (.text:_div)
                  c007c760    000000c0                     : fflush.obj (.text:_doflush)
                  c007c820    000000c0                     : _io_perm.obj (.text:_rd_ok)
                  c007c8e0    000000c0                     : tls.obj (.text:tls:init:__TI_tls_init)
                  c007c9a0    000000a0                     : trgdrv.obj (.text:HOSTclose)
                  c007ca40    000000a0                     : remu.obj (.text:__remu)
                  c007cae0    000000a0                     : fopen.obj (.text:_cleanup)
                  c007cb80    000000a0                     : _printfi.obj (.text:_ecpy)
                  c007cc20    000000a0                     : _printfi.obj (.text:_fcpy)
                  c007ccc0    000000a0                     : memory.obj (.text:_minit)
                  c007cd60    000000a0                     : _printfi.obj (.text:_pconv_f)
                  c007ce00    000000a0     exit.obj (.text)
                  c007cea0    000000a0     rts6740_elf.lib : lowlev.obj (.text:finddevice)
                  c007cf40    000000a0                     : lowlev.obj (.text:lseek)
                  c007cfe0    000000a0                     : memcpy64.obj (.text:memcpy)
                  c007d080    000000a0                     : memory.obj (.text:minsert)
                  c007d120    000000a0                     : modf.obj (.text:modf)
                  c007d1c0    000000a0                     : memory.obj (.text:mremove)
                  c007d260    000000a0     platform.lib : usb.obj (.text)
                  c007d300    000000a0     rts6740_elf.lib : lowlev.obj (.text:read)
                  c007d3a0    000000a0                     : lowlev.obj (.text:write)
                  c007d440    00000080                     : llshift.obj (.text:__c6xabi_llshl)
                  c007d4c0    00000080                     : trgmsg.obj (.text:readmsg)
                  c007d540    00000080                     : strcat.obj (.text:strcat)
                  c007d5c0    00000080                     : strncpy.obj (.text:strncpy)
                  c007d640    00000080                     : lowlev.obj (.text:unlink)
                  c007d6c0    00000060                     : cpp_init.obj (.text:__TI_cpp_init)
                  c007d720    00000060                     : imath64.obj (.text:_subcull)
                  c007d780    00000060                     : fclose.obj (.text:fclose)
                  c007d7e0    00000060                     : fopen.obj (.text:fopen)
                  c007d840    00000060                     : memccpy.obj (.text:memccpy)
                  c007d8a0    00000060                     : memcmp.obj (.text:memcmp)
                  c007d900    00000060                     : strcpy.obj (.text:strcpy)
                  c007d960    00000060                     : lowlev.obj (.text:tabinit)
                  c007d9c0    00000060     utils.lib : delay.obj (.text)
                  c007da20    00000060     rts6740_elf.lib : trgmsg.obj (.text:writemsg)
                  c007da80    00000040                     : frcmpyd_div.obj (.text:__c6xabi_frcmpyd_div)
                  c007dac0    00000040                     : isinf.obj (.text:__c6xabi_isinf)
                  c007db00    00000040                     : _printfi.obj (.text:__c6xabi_isnan)
                  c007db40    00000040                     : llshift.obj (.text:__c6xabi_llshru)
                  c007db80    00000040                     : args_main.obj (.text:_args_main)
                  c007dbc0    00000040                     : strcmp.obj (.text:strcmp)
                  c007dc00    00000040                     : strlen.obj (.text:strlen)
                  c007dc40    00000020                     : errno.obj (.text:__c6xabi_errno_addr)
                  c007dc60    00000020                     : negll.obj (.text:__c6xabi_negll)
                  c007dc80    00000020                     : trunc.obj (.text:__c6xabi_trunc)
                  c007dca0    00000020                     : _lock.obj (.text:_nop)
                  c007dcc0    00000020                     : printf.obj (.text:_outc)
                  c007dce0    00000020                     : printf.obj (.text:_outs)
                  c007dd00    00000020                     : atof.obj (.text:atof)
                  c007dd20    00000020                     : copy_decompress_none.obj (.text:decompress:none:__TI_decompress_none)
                  c007dd40    00000020                     : copy_decompress_rle.obj (.text:decompress:rle24:__TI_decompress_rle24)

.fardata   0    c007dd60    00006670     
                  c007dd60    00002400     usb.obj (.fardata:w2)
                  c0080160    00002400     usb.obj (.fardata:w3)
                  c0082560    00001680     usb.obj (.fardata:w4)
                  c0083be0    00000240     usb.obj (.fardata:w1)
                  c0083e20    000001e0     rts6740_elf.lib : defs.obj (.fardata:_ftable)
                  c0084000    000000a0                     : lowlev.obj (.fardata:_stream)
                  c00840a0    00000078                     : lowlev.obj (.fardata:_device)
                  c0084118    00000078     usb.obj (.fardata:g_sCmdTable)
                  c0084190    00000070     usb.obj (.fardata:g_sFresultStrings)
                  c0084200    00000050     usb.obj (.fardata:g_cCwdBuf)
                  c0084250    00000040     usb.obj (.fardata:b1)
                  c0084290    00000040     usb.obj (.fardata:b2)
                  c00842d0    00000040     usb.obj (.fardata:b3)
                  c0084310    00000028     usb.obj (.fardata:b4)
                  c0084338    00000020     usb.obj (.fardata:epInfo)
                  c0084358    00000018     rts6740_elf.lib : exp.obj (.fardata:P$1)
                  c0084370    00000018                     : exp.obj (.fardata:Q$2)
                  c0084388    00000018     usblib.lib : usbhostenum.obj (.fardata:g_sUSBHEP0State)
                  c00843a0    0000000c     exit.obj (.fardata)
                  c00843ac    0000000c     rts6740_elf.lib : memory.obj (.fardata)
                  c00843b8    00000008                     : _lock.obj (.fardata)
                  c00843c0    00000004                     : defs.obj (.fardata)
                  c00843c4    00000004                     : errno.obj (.fardata)
                  c00843c8    00000004                     : fopen.obj (.fardata)
                  c00843cc    00000004                     : lowlev.obj (.fardata)

.stack     0    c00843d0    00001000     UNINITIALIZED
                  c00843d0    00000008     rts6740_elf.lib : boot.obj (.stack)
                  c00843d8    00000ff8     --HOLE--

.sysmem    0    c00853d0    00001000     UNINITIALIZED
                  c00853d0    00000008     rts6740_elf.lib : memory.obj (.sysmem)
                  c00853d8    00000ff8     --HOLE--

.const     0    c00863d0    00000938     
                  c00863d0    00000684     usb.obj (.const:.string)
                  c0086a54    00000004     --HOLE-- [fill = 0]
                  c0086a58    00000101     rts6740_elf.lib : ctype.obj (.const:.string:_ctypes_)
                  c0086b59    00000064                     : perror.obj (.const:.string)
                  c0086bbd    00000003     --HOLE-- [fill = 0]
                  c0086bc0    00000050                     : strtod.obj (.const:digits)
                  c0086c10    00000048                     : strtod.obj (.const:powerof10)
                  c0086c58    00000028     usb.obj (.const:.string:$P$T1$3)
                  c0086c80    00000023     rts6740_elf.lib : _printfi.obj (.const:.string)
                  c0086ca3    00000001     --HOLE-- [fill = 0]
                  c0086ca4    0000001c     utils.lib : uartStdio.obj (.const:.string)
                  c0086cc0    00000010     usb.obj (.const)
                  c0086cd0    00000010     usblib.lib : usbhmsc.obj (.const)
                  c0086ce0    0000000e     usb.obj (.const:.string:$P$T0$2)
                  c0086cee    00000002     --HOLE-- [fill = 0]
                  c0086cf0    0000000c     ff.obj (.const:.string)
                  c0086cfc    00000004     --HOLE-- [fill = 0]
                  c0086d00    00000008     usb.obj (.const:g_ppHostClassDrivers)

.cio       0    c0086d08    00000120     UNINITIALIZED
                  c0086d08    00000120     rts6740_elf.lib : trgmsg.obj (.cio)

.neardata 
*          0    c0086e28    00000031     
                  c0086e28    00000018     usb.obj (.neardata)
                  c0086e40    0000000c     usblib.lib : usbtick.obj (.neardata)
                  c0086e4c    00000008                : usbhostenum.obj (.neardata)
                  c0086e54    00000004     platform.lib : sysdelay.obj (.neardata)
                  c0086e58    00000001     fat_usbmsc.obj (.neardata)

.rodata    0    c0086e5c    00000004     
                  c0086e5c    00000004     utils.lib : uartStdio.obj (.rodata)

.bss       0    c0086e60    00000038     UNINITIALIZED
                  c0086e60    00000024     usb.obj (.bss)
                  c0086e84    00000002     ff.obj (.bss)
                  c0086e86    00000002     --HOLE--
                  c0086e88    00000010     cnn.obj (.bss)

.text:_c_int00 
*          0    c0087000    00000080     
                  c0087000    00000080     rts6740_elf.lib : boot.obj (.text:_c_int00)

.EXT_RAM   0    c0087080    00e00000     UNINITIALIZED
                  c0087080    00e00000     usb.obj (.EXT_RAM)

.cinit     0    c0e87080    000063f4     
                  c0e87080    00006373     (.cinit..fardata.load) [load image, compression = rle]
                  c0e8d3f3    00000001     --HOLE-- [fill = 0]
                  c0e8d3f4    00000016     (.cinit..neardata.load) [load image, compression = rle]
                  c0e8d40a    00000002     --HOLE-- [fill = 0]
                  c0e8d40c    0000000d     (.cinit..far.load) [load image, compression = rle]
                  c0e8d419    00000003     --HOLE-- [fill = 0]
                  c0e8d41c    0000000c     (__TI_handler_table)
                  c0e8d428    0000000a     (.cinit..rodata.load) [load image, compression = rle]
                  c0e8d432    00000002     --HOLE-- [fill = 0]
                  c0e8d434    00000008     (.cinit..EXT_RAM.load) [load image, compression = zero_init]
                  c0e8d43c    00000008     (.cinit..bss.load) [load image, compression = zero_init]
                  c0e8d444    00000030     (__TI_cinit_table)


LINKER GENERATED COPY TABLES

__TI_cinit_table @ c0e8d444 records: 6, size/record: 8, table size: 48
	.fardata: load addr=c0e87080, load size=00006373 bytes, run addr=c007dd60, run size=00006670 bytes, compression=rle
	.neardata: load addr=c0e8d3f4, load size=00000016 bytes, run addr=c0086e28, run size=00000031 bytes, compression=rle
	.far: load addr=c0e8d40c, load size=0000000d bytes, run addr=c0000000, run size=00061338 bytes, compression=rle
	.rodata: load addr=c0e8d428, load size=0000000a bytes, run addr=c0086e5c, run size=00000004 bytes, compression=rle
	.EXT_RAM: load addr=c0e8d434, load size=00000008 bytes, run addr=c0087080, run size=00e00000 bytes, compression=zero_init
	.bss: load addr=c0e8d43c, load size=00000008 bytes, run addr=c0086e60, run size=00000038 bytes, compression=zero_init


LINKER GENERATED HANDLER TABLE

__TI_handler_table @ c0e8d41c records: 3, size/record: 4, table size: 12
	index: 0, handler: __TI_decompress_rle24
	index: 1, handler: __TI_decompress_none
	index: 2, handler: __TI_zero_init


GLOBAL SYMBOLS: SORTED ALPHABETICALLY BY Name 

address    name
--------   ----
c007ce8c   C$$EXIT
c007da78   C$$IO$$
c0076ca0   CacheDisableMAR
c0076b28   CacheEnable
c0076c08   CacheEnableMAR
c0076d54   CacheInv
c0076d2c   CacheInvL1pAll
c0076d70   CacheWB
c0076d38   CacheWBAll
c0076d8c   CacheWBInv
c0076d48   CacheWBInvAll
c006bd64   Cmd_cat
c006bb00   Cmd_cd
c006beec   Cmd_help
c006bf78   Cmd_imread
c006b89c   Cmd_ls
c006bd20   Cmd_pwd
c006caa0   Cppi41DmaInit
c006ddb4   CppiDmaGetINTD0Status
c006dd8c   CppiDmaGetPendStatus
c007d9c0   DelayTimerSetup
c0073fb8   ExcCombineAdd
c0074000   ExcCombineRemove
c0073f98   ExcGlobalEnable
c006b7c4   GetTickms
c007c9a0   HOSTclose
c007b600   HOSTlseek
c007bb00   HOSTopen
c007c2e0   HOSTread
c0079680   HOSTrename
c007c3a0   HOSTunlink
c007c460   HOSTwrite
c0060168   Header
c0060176   InfoHeader
c0073b60   IntDSPINTCInit
c0073f10   IntDisable
c0073ee0   IntEnable
c0073cd8   IntEventClear
c0073e14   IntEventCombineAdd
c0073d10   IntEventCombineInit
c0073eb8   IntEventCombineRegister
c0073e68   IntEventCombineRemove
c0073c1c   IntEventMap
c0073ca4   IntEventSet
c0073f6c   IntGlobalDisable
c0073f58   IntGlobalEnable
c0073f80   IntGlobalRestore
c0073bd0   IntRegister
c0073f44   IntReset
c0073bf4   IntUnRegister
c00655b4   InternalUSBHCDSendEvent
c007b548   InternalUSBRegisterTickHandler
c007b580   InternalUSBStartOfFrameTick
c007b4e0   InternalUSBTickInit
c007d9f4   IsTimerElapsed
c006c270   MSCCallback
c006b818   ModeCallback
c007ab80   PSCModuleControl
c007d9d8   StartTimer
c007d9e8   StopTimer
c006b830   StringFromFresult
c0079fcc   SysDelayTimerSetup
c007a0f8   SysIsTimerElapsed
c007a080   SysStartTimer
c007a0d8   SysStopTimer
c006b7b0   SysTickIntHandler
c0079ff4   Sysdelay
c00731ec   TimerCaptureConfigure
c0072fe8   TimerCaptureGet
c0073394   TimerClockModeSet
c0073038   TimerCompareGet
c0073014   TimerCompareSet
c0072db4   TimerConfigure
c0072f54   TimerCounterGet
c0072f20   TimerCounterSet
c0072d7c   TimerDisable
c00731d0   TimerDivDwnRatio34Get
c0073184   TimerDivDwnRatio34Set
c0072d20   TimerEnable
c00732f8   TimerInputGateDisable
c00732c0   TimerInputGateEnable
c0073088   TimerIntDisable
c0073058   TimerIntEnable
c00730d8   TimerIntStatusClear
c00730b4   TimerIntStatusGet
c0073474   TimerInvertINDisable
c007343c   TimerInvertINEnable
c00734ec   TimerInvertOUTDisable
c00734b0   TimerInvertOUTEnable
c007340c   TimerOUTStatusGet
c0072ef0   TimerPeriodGet
c0072eb4   TimerPeriodSet
c0073168   TimerPreScalarCount34Get
c0073114   TimerPreScalarCount34Set
c00733d0   TimerPulseModeSet
c0073330   TimerPulseWidthSet
c0073288   TimerReadResetDisable
c007324c   TimerReadResetEnable
c0072fb8   TimerReloadGet
c0072f84   TimerReloadSet
c0072e2c   TimerWatchdogActivate
c0072e6c   TimerWatchdogReactivate
c0075104   UARTBreakCtl
c0074ff4   UARTCharGet
c0074fc8   UARTCharGetNonBlocking
c0075030   UARTCharPut
c0074f88   UARTCharPutNonBlocking
c0074f38   UARTCharsAvail
c0074d34   UARTConfigGetExpClk
c0074ca0   UARTConfigSetExpClk
c007c1e0   UARTConsoleGetc
c007c180   UARTConsoleInit
c007c1b8   UARTConsolePutc
c0074e0c   UARTDMADisable
c0074dec   UARTDMAEnable
c0074eb4   UARTDisable
c0074e98   UARTEnable
c0074ef4   UARTFIFODisable
c0074ee0   UARTFIFOEnable
c0074dc8   UARTFIFOLevelSet
c0071d34   UARTGetHexNum
c0071c74   UARTGetNum
c0071fe4   UARTGetc
c0071a24   UARTGets
c00750b0   UARTIntDisable
c0075088   UARTIntEnable
c00750d8   UARTIntStatus
c0075190   UARTModemControlClear
c00751c4   UARTModemControlGet
c0075138   UARTModemControlSet
c00751e4   UARTModemStatusGet
c0074e74   UARTParityModeGet
c0074e2c   UARTParityModeSet
c007a8c0   UARTPinMuxSetup
c0071b84   UARTPutHexNum
c0071ac0   UARTPutNum
c0071fcc   UARTPutc
c007198c   UARTPuts
c0074f68   UARTRxErrorGet
c0074f0c   UARTSpaceAvail
c0071980   UARTStdioInit
c0072054   UARTprintf
c0071ff0   UARTwrite
c006524c   USB0HostIntHandler
c0065304   USB1HostIntHandler
c007d284   USBClearInt
c0071964   USBClearOtgIntr
c0077508   USBDescGet
c0077718   USBDescGetInterface
c0077758   USBDescGetInterfaceEndpoint
c0077480   USBDescGetNum
c00775a4   USBDescGetNumAlternateInterfaces
c0070aac   USBDevAddrGet
c0070a8c   USBDevAddrSet
c0070a54   USBDevConnect
c0070a70   USBDevDisconnect
c0070e74   USBDevEndpointConfigGet
c0070d18   USBDevEndpointConfigSet
c0071298   USBDevEndpointDataAck
c007092c   USBDevEndpointStall
c0070998   USBDevEndpointStallClear
c007070c   USBDevEndpointStatusClear
c007d264   USBEnableInt
c00718e4   USBEnableOtgIntr
c0071880   USBEndpointDMAChannel
c0071140   USBEndpointDMADisable
c00710ec   USBEndpointDMAEnable
c0071190   USBEndpointDataAvail
c00711e0   USBEndpointDataGet
c0071330   USBEndpointDataPut
c00713c8   USBEndpointDataSend
c00708d8   USBEndpointDataToggleClear
c007064c   USBEndpointStatus
c0071840   USBFIFOAddrGet
c0071058   USBFIFOConfigGet
c0070fd4   USBFIFOConfigSet
c007142c   USBFIFOFlush
c00717d8   USBFrameNumberGet
c00661d0   USBHCDControlTransfer
c006c2ac   USBHCDEvents
c0066cf4   USBHCDGetSpeed
c00638e0   USBHCDInit
c0065974   USBHCDMain
c0061bc4   USBHCDPipeAlloc
c0061778   USBHCDPipeAllocSize
c0061be4   USBHCDPipeConfig
c0062f40   USBHCDPipeFree
c0062828   USBHCDPipeRead
c0062784   USBHCDPipeReadNonBlocking
c0062680   USBHCDPipeSchedule
c0062078   USBHCDPipeStatus
c006208c   USBHCDPipeWrite
c00638a0   USBHCDPowerAutomatic
c00636d8   USBHCDPowerConfigGet
c00636a0   USBHCDPowerConfigInit
c0063710   USBHCDPowerConfigSet
c0063be8   USBHCDRegisterDrivers
c0063f14   USBHCDReset
c0063fa8   USBHCDResume
c00642cc   USBHCDSetAddress
c0064474   USBHCDSetConfig
c00644d8   USBHCDSetInterface
c0063f78   USBHCDSuspend
c0063c68   USBHCDTerm
c0066cc0   USBHCDTimeOutHook
c0073a54   USBHMSCBlockRead
c0073acc   USBHMSCBlockWrite
c0073a34   USBHMSCDriveClose
c00739b4   USBHMSCDriveOpen
c00737a8   USBHMSCDriveReady
c0075374   USBHSCSIInquiry
c00754cc   USBHSCSIModeSense6
c0075620   USBHSCSIRead10
c0075464   USBHSCSIReadCapacities
c00753f4   USBHSCSIReadCapacity
c00755b0   USBHSCSIRequestSense
c0075554   USBHSCSITestUnitReady
c00756d8   USBHSCSIWrite10
c0086e34   USBHTimeOut
c0071620   USBHostAddrGet
c00715c8   USBHostAddrSet
c0071578   USBHostAutoReqClear
c0071548   USBHostAutoReqSet
c0064548   USBHostCheckPipes
c0070ac4   USBHostEndpointConfig
c00712ec   USBHostEndpointDataAck
c00707e4   USBHostEndpointDataToggle
c007068c   USBHostEndpointStatusClear
c00716c0   USBHostHubAddrGet
c0071668   USBHostHubAddrSet
c0064748   USBHostIntHandlerInternal
c0071708   USBHostPwrConfig
c00717b4   USBHostPwrDisable
c0071790   USBHostPwrEnable
c0071770   USBHostPwrFaultDisable
c0071754   USBHostPwrFaultEnable
c00714e8   USBHostRequestIN
c0071514   USBHostRequestINClear
c00715ac   USBHostRequestStatus
c0070108   USBHostReset
c0070144   USBHostResume
c0070180   USBHostSpeedGet
c00700e8   USBHostSuspend
c0070274   USBIntDisable
c0070408   USBIntDisableControl
c0070554   USBIntDisableEndpoint
c0070340   USBIntEnable
c0070470   USBIntEnableControl
c00705a0   USBIntEnableEndpoint
c0070618   USBIntRegister
c00701cc   USBIntStatus
c00704d8   USBIntStatusControl
c00705e8   USBIntStatusEndpoint
c0070638   USBIntUnregister
c0071860   USBModeGet
c007d2c8   USBModuleClkDisable
c007d2a0   USBModuleClkEnable
c00717f0   USBOTGSessionRequest
c0071910   USBReset
c007d260   USBVersionGet
c007ba84   UsbPhyOff
c007ba00   UsbPhyOn
c0086d08   __CIOBUF_
c0e8d444   __TI_CINIT_Base
c0e8d474   __TI_CINIT_Limit
c0e8d41c   __TI_Handler_Table_Base
c0e8d428   __TI_Handler_Table_Limit
UNDEFED    __TI_INITARRAY_Base
UNDEFED    __TI_INITARRAY_Limit
c00853d0   __TI_STACK_END
00001000   __TI_STACK_SIZE
c0086e28   __TI_STATIC_BASE
00001000   __TI_SYSMEM_SIZE
UNDEFED    __TI_TLS_INIT_Base
UNDEFED    __TI_TLS_INIT_Limit
00000001   __TI_args_main
c007d6c0   __TI_cpp_init
c007dd20   __TI_decompress_none
c007dd40   __TI_decompress_rle24
c00843a8   __TI_enable_exit_profile_output
ffffffff   __TI_pprof_out_hndl
ffffffff   __TI_prof_data_size
ffffffff   __TI_prof_data_start
c007c8e0   __TI_tls_init
c007be80   __TI_zero_init
ffffffff   __binit__
c0074700   __c6xabi_divd
c007bbe0   __c6xabi_divi
c007c520   __c6xabi_divu
c007a120   __c6xabi_divul
c0078500   __c6xabi_divull
c007dc40   __c6xabi_errno_addr
c007da80   __c6xabi_frcmpyd_div
c007dac0   __c6xabi_isinf
c007d440   __c6xabi_llshl
c007db40   __c6xabi_llshru
c007dc60   __c6xabi_negll
c007c5e0   __c6xabi_remi
c007ca40   __c6xabi_remu
c007dc80   __c6xabi_trunc
ffffffff   __c_args__
c007bbe0   __divi
c007c520   __divu
c00843c4   __errno
c007c5e0   __remi
c007ca40   __remu
c007db80   _args_main
c007b700   _auto_init_elf
c007af40   _buff_read
c006f558   _c674x_mask_int10_isr
c006f720   _c674x_mask_int11_isr
c006f8e4   _c674x_mask_int12_isr
c006faa8   _c674x_mask_int13_isr
c006fc70   _c674x_mask_int14_isr
c006fe38   _c674x_mask_int15_isr
c006eab0   _c674x_mask_int4_isr
c006ec78   _c674x_mask_int5_isr
c006ee40   _c674x_mask_int6_isr
c006f004   _c674x_mask_int7_isr
c006f1c8   _c674x_mask_int8_isr
c006f390   _c674x_mask_int9_isr
c006e560   _c674x_nmi_isr
c006e724   _c674x_rsvd_int2_isr
c006e8e8   _c674x_rsvd_int3_isr
c0087000   _c_int00
c007cae0   _cleanup
c00843a0   _cleanup_ptr
c007b060   _closefile
c0086a58   _ctypes_
c007c760   _doflush
c00843a4   _dtors_ptr
c00843c0   _ft_end
c0083e20   _ftable
c0079800   _intcVectorTable
c00843b8   _lock
c007ccc0   _minit
c007dca0   _nop
c00760e0   _printfi
c007c820   _rd_ok
c00843d0   _stack
c007d720   _subcull
c00853d0   _sys_memory
c00611a8   _tmpnams
c00843bc   _unlock
c007b800   _wrt_ok
c007ce8c   abort
c007dd00   atof
c007bcc0   atoi
c0084250   b1
c0084290   b2
c00842d0   b3
c0084310   b4
ffffffff   binit
c0086e64   bitmap
c007bda0   close
c00724e0   conv
c007b900   copy_in
c006e250   cppiDmaAllocBuffer
c006e364   cppiDmaAllocnBuffer
c006e2e4   cppiDmaFreeBuffer
c006e460   cppiDmaFreenBuffer
c006e534   cppiDmaHandleError
c0015200   cppiInfo
c0015380   dBuffer
c007d9cc   delay
c0072b14   dense
c0086e38   deviceRetryOnTimeOut
c006d3cc   disableCoreRxDMA
c006d450   disableCoreTxDMA
c0079a00   disk_initialize
c0079b88   disk_ioctl
c0079a88   disk_read
c0079a60   disk_status
c0079af0   disk_write
c0055380   dmaBuffer
c006dcf4   dmaRxCompletion
c006dc18   dmaTxCompletion
c006db88   doDmaRxTransfer
c006d878   doDmaTxTransfer
c006d30c   enableCoreRxDMA
c006d270   enableCoreTxDMA
c0084338   epInfo
c00843c4   errno
c007ce00   exit
c0078c00   exp
c0069f58   f_chmod
c00693b8   f_close
c00698c0   f_getfree
c00693e4   f_lseek
c0069c14   f_mkdir
c006868c   f_mount
c006870c   f_open
c0069678   f_opendir
c0068b0c   f_read
c0069750   f_readdir
c006a00c   f_rename
c0069858   f_stat
c00691e4   f_sync
c0069a90   f_unlink
c0068e40   f_write
c007d780   fclose
c007d7e0   fopen
c0079060   fputc
c0076dc0   fputs
c0077a80   fread
c0078280   free
c007b3c0   fseek
c00757a0   fwrite
c00612e8   g_USBHMSCDevice
c0086cd0   g_USBHostMSCClassDriver
c0056380   g_USBInstance
c0056398   g_USBPerfInfo
c0086e40   g_bUSBTimerInitialized
c0086e80   g_eCurrentUSBMode
c0086e78   g_eState
c0086e7c   g_eUIState
c0060728   g_pHCDPool
c0061308   g_pfTickHandlers
c0061318   g_pvTickInstance
c0084118   g_sCmdTable
c0084190   g_sFresultStrings
c0086cc0   g_sUSBEventDriver
c00609f8   g_sUSBHCD
c00609f0   g_ulConnectRetry
c0086e44   g_ulCurrentUSBTick
c0086e74   g_ulLastTick
c0086e3c   g_ulMSCInstance
c0086e70   g_ulSysTickCount
c0086e48   g_ulUSBSOFCount
c006d758   getFreeBd
c0079bd0   get_fattime
c0086e68   image
c006b234   imread
c006b48c   imshow
c0086e6c   input_image
c007a440   ldexp
c007cf40   lseek
c007bf60   ltoa
c006a638   m_free
c006a36c   m_malloc
c0087080   m_mem
c006a7d8   m_stat
c006c558   main
c007a5c0   malloc
c0086e28   mem_count
c006a180   mem_init
c007d840   memccpy
c007d8a0   memcmp
c007cfe0   memcpy
c007c040   memset
c007d120   modf
c006c350   msc_inti
c0072848   nn_pool
c007a740   open
c007ae00   perror
c005ffd8   pointers
c007c200   printf
c006d808   pushToSubmitQ
c006d7b0   putFreeBd
c007d300   read
c007d4c0   readmsg
c0001000   region0DescriptorSpace
c007d640   remove
c006a7a0   s_free
c006a728   s_malloc
c0c87080   s_mem
c0079480   setvbuf
c0072a44   softmax
c0086e88   softmax_ran_once
c0086e90   softmax_sum
c006a248   sort
c0086e60   sp
c007d540   strcat
c007dbc0   strcmp
c007d900   strcpy
c007dc00   strlen
c007d5c0   strncpy
c0075c60   strtod
c007d640   unlink
c0086e2c   upper_bound_m
c0086e30   upper_bound_s
c006a8cc   usb_imread
c006ae84   usb_imshow
c006ad0c   usb_txtread
c0083be0   w1
c007dd60   w2
c0080160   w3
c0082560   w4
c007d3a0   write
c007da20   writemsg


GLOBAL SYMBOLS: SORTED BY Symbol Address 

address    name
--------   ----
00000001   __TI_args_main
00001000   __TI_STACK_SIZE
00001000   __TI_SYSMEM_SIZE
c0001000   region0DescriptorSpace
c0015200   cppiInfo
c0015380   dBuffer
c0055380   dmaBuffer
c0056380   g_USBInstance
c0056398   g_USBPerfInfo
c005ffd8   pointers
c0060168   Header
c0060176   InfoHeader
c0060728   g_pHCDPool
c00609f0   g_ulConnectRetry
c00609f8   g_sUSBHCD
c00611a8   _tmpnams
c00612e8   g_USBHMSCDevice
c0061308   g_pfTickHandlers
c0061318   g_pvTickInstance
c0061778   USBHCDPipeAllocSize
c0061bc4   USBHCDPipeAlloc
c0061be4   USBHCDPipeConfig
c0062078   USBHCDPipeStatus
c006208c   USBHCDPipeWrite
c0062680   USBHCDPipeSchedule
c0062784   USBHCDPipeReadNonBlocking
c0062828   USBHCDPipeRead
c0062f40   USBHCDPipeFree
c00636a0   USBHCDPowerConfigInit
c00636d8   USBHCDPowerConfigGet
c0063710   USBHCDPowerConfigSet
c00638a0   USBHCDPowerAutomatic
c00638e0   USBHCDInit
c0063be8   USBHCDRegisterDrivers
c0063c68   USBHCDTerm
c0063f14   USBHCDReset
c0063f78   USBHCDSuspend
c0063fa8   USBHCDResume
c00642cc   USBHCDSetAddress
c0064474   USBHCDSetConfig
c00644d8   USBHCDSetInterface
c0064548   USBHostCheckPipes
c0064748   USBHostIntHandlerInternal
c006524c   USB0HostIntHandler
c0065304   USB1HostIntHandler
c00655b4   InternalUSBHCDSendEvent
c0065974   USBHCDMain
c00661d0   USBHCDControlTransfer
c0066cc0   USBHCDTimeOutHook
c0066cf4   USBHCDGetSpeed
c006868c   f_mount
c006870c   f_open
c0068b0c   f_read
c0068e40   f_write
c00691e4   f_sync
c00693b8   f_close
c00693e4   f_lseek
c0069678   f_opendir
c0069750   f_readdir
c0069858   f_stat
c00698c0   f_getfree
c0069a90   f_unlink
c0069c14   f_mkdir
c0069f58   f_chmod
c006a00c   f_rename
c006a180   mem_init
c006a248   sort
c006a36c   m_malloc
c006a638   m_free
c006a728   s_malloc
c006a7a0   s_free
c006a7d8   m_stat
c006a8cc   usb_imread
c006ad0c   usb_txtread
c006ae84   usb_imshow
c006b234   imread
c006b48c   imshow
c006b7b0   SysTickIntHandler
c006b7c4   GetTickms
c006b818   ModeCallback
c006b830   StringFromFresult
c006b89c   Cmd_ls
c006bb00   Cmd_cd
c006bd20   Cmd_pwd
c006bd64   Cmd_cat
c006beec   Cmd_help
c006bf78   Cmd_imread
c006c270   MSCCallback
c006c2ac   USBHCDEvents
c006c350   msc_inti
c006c558   main
c006caa0   Cppi41DmaInit
c006d270   enableCoreTxDMA
c006d30c   enableCoreRxDMA
c006d3cc   disableCoreRxDMA
c006d450   disableCoreTxDMA
c006d758   getFreeBd
c006d7b0   putFreeBd
c006d808   pushToSubmitQ
c006d878   doDmaTxTransfer
c006db88   doDmaRxTransfer
c006dc18   dmaTxCompletion
c006dcf4   dmaRxCompletion
c006dd8c   CppiDmaGetPendStatus
c006ddb4   CppiDmaGetINTD0Status
c006e250   cppiDmaAllocBuffer
c006e2e4   cppiDmaFreeBuffer
c006e364   cppiDmaAllocnBuffer
c006e460   cppiDmaFreenBuffer
c006e534   cppiDmaHandleError
c006e560   _c674x_nmi_isr
c006e724   _c674x_rsvd_int2_isr
c006e8e8   _c674x_rsvd_int3_isr
c006eab0   _c674x_mask_int4_isr
c006ec78   _c674x_mask_int5_isr
c006ee40   _c674x_mask_int6_isr
c006f004   _c674x_mask_int7_isr
c006f1c8   _c674x_mask_int8_isr
c006f390   _c674x_mask_int9_isr
c006f558   _c674x_mask_int10_isr
c006f720   _c674x_mask_int11_isr
c006f8e4   _c674x_mask_int12_isr
c006faa8   _c674x_mask_int13_isr
c006fc70   _c674x_mask_int14_isr
c006fe38   _c674x_mask_int15_isr
c00700e8   USBHostSuspend
c0070108   USBHostReset
c0070144   USBHostResume
c0070180   USBHostSpeedGet
c00701cc   USBIntStatus
c0070274   USBIntDisable
c0070340   USBIntEnable
c0070408   USBIntDisableControl
c0070470   USBIntEnableControl
c00704d8   USBIntStatusControl
c0070554   USBIntDisableEndpoint
c00705a0   USBIntEnableEndpoint
c00705e8   USBIntStatusEndpoint
c0070618   USBIntRegister
c0070638   USBIntUnregister
c007064c   USBEndpointStatus
c007068c   USBHostEndpointStatusClear
c007070c   USBDevEndpointStatusClear
c00707e4   USBHostEndpointDataToggle
c00708d8   USBEndpointDataToggleClear
c007092c   USBDevEndpointStall
c0070998   USBDevEndpointStallClear
c0070a54   USBDevConnect
c0070a70   USBDevDisconnect
c0070a8c   USBDevAddrSet
c0070aac   USBDevAddrGet
c0070ac4   USBHostEndpointConfig
c0070d18   USBDevEndpointConfigSet
c0070e74   USBDevEndpointConfigGet
c0070fd4   USBFIFOConfigSet
c0071058   USBFIFOConfigGet
c00710ec   USBEndpointDMAEnable
c0071140   USBEndpointDMADisable
c0071190   USBEndpointDataAvail
c00711e0   USBEndpointDataGet
c0071298   USBDevEndpointDataAck
c00712ec   USBHostEndpointDataAck
c0071330   USBEndpointDataPut
c00713c8   USBEndpointDataSend
c007142c   USBFIFOFlush
c00714e8   USBHostRequestIN
c0071514   USBHostRequestINClear
c0071548   USBHostAutoReqSet
c0071578   USBHostAutoReqClear
c00715ac   USBHostRequestStatus
c00715c8   USBHostAddrSet
c0071620   USBHostAddrGet
c0071668   USBHostHubAddrSet
c00716c0   USBHostHubAddrGet
c0071708   USBHostPwrConfig
c0071754   USBHostPwrFaultEnable
c0071770   USBHostPwrFaultDisable
c0071790   USBHostPwrEnable
c00717b4   USBHostPwrDisable
c00717d8   USBFrameNumberGet
c00717f0   USBOTGSessionRequest
c0071840   USBFIFOAddrGet
c0071860   USBModeGet
c0071880   USBEndpointDMAChannel
c00718e4   USBEnableOtgIntr
c0071910   USBReset
c0071964   USBClearOtgIntr
c0071980   UARTStdioInit
c007198c   UARTPuts
c0071a24   UARTGets
c0071ac0   UARTPutNum
c0071b84   UARTPutHexNum
c0071c74   UARTGetNum
c0071d34   UARTGetHexNum
c0071fcc   UARTPutc
c0071fe4   UARTGetc
c0071ff0   UARTwrite
c0072054   UARTprintf
c00724e0   conv
c0072848   nn_pool
c0072a44   softmax
c0072b14   dense
c0072d20   TimerEnable
c0072d7c   TimerDisable
c0072db4   TimerConfigure
c0072e2c   TimerWatchdogActivate
c0072e6c   TimerWatchdogReactivate
c0072eb4   TimerPeriodSet
c0072ef0   TimerPeriodGet
c0072f20   TimerCounterSet
c0072f54   TimerCounterGet
c0072f84   TimerReloadSet
c0072fb8   TimerReloadGet
c0072fe8   TimerCaptureGet
c0073014   TimerCompareSet
c0073038   TimerCompareGet
c0073058   TimerIntEnable
c0073088   TimerIntDisable
c00730b4   TimerIntStatusGet
c00730d8   TimerIntStatusClear
c0073114   TimerPreScalarCount34Set
c0073168   TimerPreScalarCount34Get
c0073184   TimerDivDwnRatio34Set
c00731d0   TimerDivDwnRatio34Get
c00731ec   TimerCaptureConfigure
c007324c   TimerReadResetEnable
c0073288   TimerReadResetDisable
c00732c0   TimerInputGateEnable
c00732f8   TimerInputGateDisable
c0073330   TimerPulseWidthSet
c0073394   TimerClockModeSet
c00733d0   TimerPulseModeSet
c007340c   TimerOUTStatusGet
c007343c   TimerInvertINEnable
c0073474   TimerInvertINDisable
c00734b0   TimerInvertOUTEnable
c00734ec   TimerInvertOUTDisable
c00737a8   USBHMSCDriveReady
c00739b4   USBHMSCDriveOpen
c0073a34   USBHMSCDriveClose
c0073a54   USBHMSCBlockRead
c0073acc   USBHMSCBlockWrite
c0073b60   IntDSPINTCInit
c0073bd0   IntRegister
c0073bf4   IntUnRegister
c0073c1c   IntEventMap
c0073ca4   IntEventSet
c0073cd8   IntEventClear
c0073d10   IntEventCombineInit
c0073e14   IntEventCombineAdd
c0073e68   IntEventCombineRemove
c0073eb8   IntEventCombineRegister
c0073ee0   IntEnable
c0073f10   IntDisable
c0073f44   IntReset
c0073f58   IntGlobalEnable
c0073f6c   IntGlobalDisable
c0073f80   IntGlobalRestore
c0073f98   ExcGlobalEnable
c0073fb8   ExcCombineAdd
c0074000   ExcCombineRemove
c0074700   __c6xabi_divd
c0074ca0   UARTConfigSetExpClk
c0074d34   UARTConfigGetExpClk
c0074dc8   UARTFIFOLevelSet
c0074dec   UARTDMAEnable
c0074e0c   UARTDMADisable
c0074e2c   UARTParityModeSet
c0074e74   UARTParityModeGet
c0074e98   UARTEnable
c0074eb4   UARTDisable
c0074ee0   UARTFIFOEnable
c0074ef4   UARTFIFODisable
c0074f0c   UARTSpaceAvail
c0074f38   UARTCharsAvail
c0074f68   UARTRxErrorGet
c0074f88   UARTCharPutNonBlocking
c0074fc8   UARTCharGetNonBlocking
c0074ff4   UARTCharGet
c0075030   UARTCharPut
c0075088   UARTIntEnable
c00750b0   UARTIntDisable
c00750d8   UARTIntStatus
c0075104   UARTBreakCtl
c0075138   UARTModemControlSet
c0075190   UARTModemControlClear
c00751c4   UARTModemControlGet
c00751e4   UARTModemStatusGet
c0075374   USBHSCSIInquiry
c00753f4   USBHSCSIReadCapacity
c0075464   USBHSCSIReadCapacities
c00754cc   USBHSCSIModeSense6
c0075554   USBHSCSITestUnitReady
c00755b0   USBHSCSIRequestSense
c0075620   USBHSCSIRead10
c00756d8   USBHSCSIWrite10
c00757a0   fwrite
c0075c60   strtod
c00760e0   _printfi
c0076b28   CacheEnable
c0076c08   CacheEnableMAR
c0076ca0   CacheDisableMAR
c0076d2c   CacheInvL1pAll
c0076d38   CacheWBAll
c0076d48   CacheWBInvAll
c0076d54   CacheInv
c0076d70   CacheWB
c0076d8c   CacheWBInv
c0076dc0   fputs
c0077480   USBDescGetNum
c0077508   USBDescGet
c00775a4   USBDescGetNumAlternateInterfaces
c0077718   USBDescGetInterface
c0077758   USBDescGetInterfaceEndpoint
c0077a80   fread
c0078280   free
c0078500   __c6xabi_divull
c0078c00   exp
c0079060   fputc
c0079480   setvbuf
c0079680   HOSTrename
c0079800   _intcVectorTable
c0079a00   disk_initialize
c0079a60   disk_status
c0079a88   disk_read
c0079af0   disk_write
c0079b88   disk_ioctl
c0079bd0   get_fattime
c0079fcc   SysDelayTimerSetup
c0079ff4   Sysdelay
c007a080   SysStartTimer
c007a0d8   SysStopTimer
c007a0f8   SysIsTimerElapsed
c007a120   __c6xabi_divul
c007a440   ldexp
c007a5c0   malloc
c007a740   open
c007a8c0   UARTPinMuxSetup
c007ab80   PSCModuleControl
c007ae00   perror
c007af40   _buff_read
c007b060   _closefile
c007b3c0   fseek
c007b4e0   InternalUSBTickInit
c007b548   InternalUSBRegisterTickHandler
c007b580   InternalUSBStartOfFrameTick
c007b600   HOSTlseek
c007b700   _auto_init_elf
c007b800   _wrt_ok
c007b900   copy_in
c007ba00   UsbPhyOn
c007ba84   UsbPhyOff
c007bb00   HOSTopen
c007bbe0   __c6xabi_divi
c007bbe0   __divi
c007bcc0   atoi
c007bda0   close
c007be80   __TI_zero_init
c007bf60   ltoa
c007c040   memset
c007c180   UARTConsoleInit
c007c1b8   UARTConsolePutc
c007c1e0   UARTConsoleGetc
c007c200   printf
c007c2e0   HOSTread
c007c3a0   HOSTunlink
c007c460   HOSTwrite
c007c520   __c6xabi_divu
c007c520   __divu
c007c5e0   __c6xabi_remi
c007c5e0   __remi
c007c760   _doflush
c007c820   _rd_ok
c007c8e0   __TI_tls_init
c007c9a0   HOSTclose
c007ca40   __c6xabi_remu
c007ca40   __remu
c007cae0   _cleanup
c007ccc0   _minit
c007ce00   exit
c007ce8c   C$$EXIT
c007ce8c   abort
c007cf40   lseek
c007cfe0   memcpy
c007d120   modf
c007d260   USBVersionGet
c007d264   USBEnableInt
c007d284   USBClearInt
c007d2a0   USBModuleClkEnable
c007d2c8   USBModuleClkDisable
c007d300   read
c007d3a0   write
c007d440   __c6xabi_llshl
c007d4c0   readmsg
c007d540   strcat
c007d5c0   strncpy
c007d640   remove
c007d640   unlink
c007d6c0   __TI_cpp_init
c007d720   _subcull
c007d780   fclose
c007d7e0   fopen
c007d840   memccpy
c007d8a0   memcmp
c007d900   strcpy
c007d9c0   DelayTimerSetup
c007d9cc   delay
c007d9d8   StartTimer
c007d9e8   StopTimer
c007d9f4   IsTimerElapsed
c007da20   writemsg
c007da78   C$$IO$$
c007da80   __c6xabi_frcmpyd_div
c007dac0   __c6xabi_isinf
c007db40   __c6xabi_llshru
c007db80   _args_main
c007dbc0   strcmp
c007dc00   strlen
c007dc40   __c6xabi_errno_addr
c007dc60   __c6xabi_negll
c007dc80   __c6xabi_trunc
c007dca0   _nop
c007dd00   atof
c007dd20   __TI_decompress_none
c007dd40   __TI_decompress_rle24
c007dd60   w2
c0080160   w3
c0082560   w4
c0083be0   w1
c0083e20   _ftable
c0084118   g_sCmdTable
c0084190   g_sFresultStrings
c0084250   b1
c0084290   b2
c00842d0   b3
c0084310   b4
c0084338   epInfo
c00843a0   _cleanup_ptr
c00843a4   _dtors_ptr
c00843a8   __TI_enable_exit_profile_output
c00843b8   _lock
c00843bc   _unlock
c00843c0   _ft_end
c00843c4   __errno
c00843c4   errno
c00843d0   _stack
c00853d0   __TI_STACK_END
c00853d0   _sys_memory
c0086a58   _ctypes_
c0086cc0   g_sUSBEventDriver
c0086cd0   g_USBHostMSCClassDriver
c0086d08   __CIOBUF_
c0086e28   __TI_STATIC_BASE
c0086e28   mem_count
c0086e2c   upper_bound_m
c0086e30   upper_bound_s
c0086e34   USBHTimeOut
c0086e38   deviceRetryOnTimeOut
c0086e3c   g_ulMSCInstance
c0086e40   g_bUSBTimerInitialized
c0086e44   g_ulCurrentUSBTick
c0086e48   g_ulUSBSOFCount
c0086e60   sp
c0086e64   bitmap
c0086e68   image
c0086e6c   input_image
c0086e70   g_ulSysTickCount
c0086e74   g_ulLastTick
c0086e78   g_eState
c0086e7c   g_eUIState
c0086e80   g_eCurrentUSBMode
c0086e88   softmax_ran_once
c0086e90   softmax_sum
c0087000   _c_int00
c0087080   m_mem
c0c87080   s_mem
c0e8d41c   __TI_Handler_Table_Base
c0e8d428   __TI_Handler_Table_Limit
c0e8d444   __TI_CINIT_Base
c0e8d474   __TI_CINIT_Limit
ffffffff   __TI_pprof_out_hndl
ffffffff   __TI_prof_data_size
ffffffff   __TI_prof_data_start
ffffffff   __binit__
ffffffff   __c_args__
ffffffff   binit
UNDEFED    __TI_INITARRAY_Base
UNDEFED    __TI_INITARRAY_Limit
UNDEFED    __TI_TLS_INIT_Base
UNDEFED    __TI_TLS_INIT_Limit

[490 symbols]
